; ModuleID = '54/1279.cpp'
source_filename = "54/1279.cpp"
target datalayout = "e-m:e-p270:32:32-p271:32:32-p272:64:64-i64:64-f80:128-n8:16:32:64-S128"
target triple = "x86_64-pc-linux-gnu"

%"class.std::ios_base::Init" = type { i8 }
%"class.std::basic_istream" = type { i32 (...)**, i64, %"class.std::basic_ios" }
%"class.std::basic_ios" = type { %"class.std::ios_base", %"class.std::basic_ostream"*, i8, i8, %"class.std::basic_streambuf"*, %"class.std::ctype"*, %"class.std::num_put"*, %"class.std::num_get"* }
%"class.std::ios_base" = type { i32 (...)**, i64, i64, i32, i32, i32, %"struct.std::ios_base::_Callback_list"*, %"struct.std::ios_base::_Words", [8 x %"struct.std::ios_base::_Words"], i32, %"struct.std::ios_base::_Words"*, %"class.std::locale" }
%"struct.std::ios_base::_Callback_list" = type { %"struct.std::ios_base::_Callback_list"*, void (i32, %"class.std::ios_base"*, i32)*, i32, i32 }
%"struct.std::ios_base::_Words" = type { i8*, i64 }
%"class.std::locale" = type { %"class.std::locale::_Impl"* }
%"class.std::locale::_Impl" = type { i32, %"class.std::locale::facet"**, i64, %"class.std::locale::facet"**, i8** }
%"class.std::locale::facet" = type <{ i32 (...)**, i32, [4 x i8] }>
%"class.std::basic_ostream" = type { i32 (...)**, %"class.std::basic_ios" }
%"class.std::basic_streambuf" = type { i32 (...)**, i8*, i8*, i8*, i8*, i8*, i8*, %"class.std::locale" }
%"class.std::ctype" = type <{ %"class.std::locale::facet.base", [4 x i8], %struct.__locale_struct*, i8, [7 x i8], i32*, i32*, i16*, i8, [256 x i8], [256 x i8], i8, [6 x i8] }>
%"class.std::locale::facet.base" = type <{ i32 (...)**, i32 }>
%struct.__locale_struct = type { [13 x %struct.__locale_data*], i16*, i32*, i32*, [13 x i8*] }
%struct.__locale_data = type opaque
%"class.std::num_put" = type { %"class.std::locale::facet.base", [4 x i8] }
%"class.std::num_get" = type { %"class.std::locale::facet.base", [4 x i8] }

@_ZStL8__ioinit = internal global %"class.std::ios_base::Init" zeroinitializer, align 1
@__dso_handle = external hidden global i8
@_ZSt3cin = external dso_local global %"class.std::basic_istream", align 8
@_ZSt4cout = external dso_local global %"class.std::basic_ostream", align 8
@llvm.global_ctors = appending global [1 x { i32, void ()*, i8* }] [{ i32, void ()*, i8* } { i32 65535, void ()* @_GLOBAL__sub_I_1279.cpp, i8* null }]

; Function Attrs: noinline uwtable
define internal void @__cxx_global_var_init() #0 section ".text.startup" {
  call void @_ZNSt8ios_base4InitC1Ev(%"class.std::ios_base::Init"* @_ZStL8__ioinit)
  %1 = call i32 @__cxa_atexit(void (i8*)* bitcast (void (%"class.std::ios_base::Init"*)* @_ZNSt8ios_base4InitD1Ev to void (i8*)*), i8* getelementptr inbounds (%"class.std::ios_base::Init", %"class.std::ios_base::Init"* @_ZStL8__ioinit, i32 0, i32 0), i8* @__dso_handle) #3
  ret void
}

declare dso_local void @_ZNSt8ios_base4InitC1Ev(%"class.std::ios_base::Init"*) unnamed_addr #1

; Function Attrs: nounwind
declare dso_local void @_ZNSt8ios_base4InitD1Ev(%"class.std::ios_base::Init"*) unnamed_addr #2

; Function Attrs: nounwind
declare dso_local i32 @__cxa_atexit(void (i8*)*, i8*, i8*) #3

; Function Attrs: noinline norecurse uwtable
define dso_local i32 @main() #4 {
  %1 = alloca i32, align 4
  %2 = alloca i32, align 4
  %3 = alloca i32, align 4
  store i32 0, i32* %1, align 4
  %4 = call dereferenceable(280) %"class.std::basic_istream"* @_ZNSirsERi(%"class.std::basic_istream"* @_ZSt3cin, i32* dereferenceable(4) %2)
  %5 = call dereferenceable(280) %"class.std::basic_istream"* @_ZNSirsERi(%"class.std::basic_istream"* %4, i32* dereferenceable(4) %3)
  %6 = load i32, i32* %2, align 4
  %7 = load i32, i32* %3, align 4
  %8 = call i32 @_Z7div_fooiiii(i32 %6, i32 %7, i32 1, i32 1)
  %9 = call dereferenceable(272) %"class.std::basic_ostream"* @_ZNSolsEi(%"class.std::basic_ostream"* @_ZSt4cout, i32 %8)
  %10 = call dereferenceable(272) %"class.std::basic_ostream"* @_ZNSolsEPFRSoS_E(%"class.std::basic_ostream"* %9, %"class.std::basic_ostream"* (%"class.std::basic_ostream"*)* @_ZSt4endlIcSt11char_traitsIcEERSt13basic_ostreamIT_T0_ES6_)
  ret i32 0
}

declare dso_local dereferenceable(280) %"class.std::basic_istream"* @_ZNSirsERi(%"class.std::basic_istream"*, i32* dereferenceable(4)) #1

declare dso_local dereferenceable(272) %"class.std::basic_ostream"* @_ZNSolsEi(%"class.std::basic_ostream"*, i32) #1

; Function Attrs: noinline uwtable
define dso_local i32 @_Z7div_fooiiii(i32 %0, i32 %1, i32 %2, i32 %3) #0 {
  %5 = alloca i32, align 4
  %6 = alloca i32, align 4
  %7 = alloca i32, align 4
  %8 = alloca i32, align 4
  %9 = alloca i32, align 4
  %10 = alloca i32, align 4
  %11 = alloca i32, align 4
  %12 = alloca i32, align 4
  %13 = alloca i32, align 4
  %14 = alloca i32, align 4
  store i32 %0, i32* %6, align 4
  store i32 %1, i32* %7, align 4
  store i32 %2, i32* %8, align 4
  store i32 %3, i32* %9, align 4
  %15 = load i32, i32* %8, align 4
  %16 = load i32, i32* %6, align 4
  %17 = icmp eq i32 %15, %16
  br i1 %17, label %18, label %24

18:                                               ; preds = %4
  %19 = load i32, i32* %9, align 4
  %20 = load i32, i32* %6, align 4
  %21 = mul nsw i32 %19, %20
  %22 = load i32, i32* %7, align 4
  %23 = add nsw i32 %21, %22
  store i32 %23, i32* %5, align 4
  br label %104

24:                                               ; preds = %4
  %25 = load i32, i32* %8, align 4
  %26 = icmp eq i32 %25, 1
  br i1 %26, label %27, label %64

27:                                               ; preds = %24
  store i32 0, i32* %12, align 4
  br label %28

28:                                               ; preds = %55, %27
  %29 = load i32, i32* %6, align 4
  %30 = load i32, i32* %7, align 4
  %31 = load i32, i32* %8, align 4
  %32 = add nsw i32 %31, 1
  %33 = load i32, i32* %9, align 4
  %34 = load i32, i32* %12, align 4
  %35 = add nsw i32 %33, %34
  %36 = call i32 @_Z7div_fooiiii(i32 %29, i32 %30, i32 %32, i32 %35)
  store i32 %36, i32* %11, align 4
  %37 = load i32, i32* %11, align 4
  %38 = load i32, i32* %6, align 4
  %39 = sub nsw i32 %38, 1
  %40 = sdiv i32 %37, %39
  store i32 %40, i32* %10, align 4
  %41 = load i32, i32* %11, align 4
  %42 = icmp ne i32 %41, 0
  br i1 %42, label %43, label %54

43:                                               ; preds = %28
  %44 = load i32, i32* %11, align 4
  %45 = load i32, i32* %10, align 4
  %46 = add nsw i32 %44, %45
  %47 = load i32, i32* %7, align 4
  %48 = add nsw i32 %46, %47
  %49 = load i32, i32* %6, align 4
  %50 = srem i32 %48, %49
  %51 = load i32, i32* %7, align 4
  %52 = icmp eq i32 %50, %51
  br i1 %52, label %53, label %54

53:                                               ; preds = %43
  br label %58

54:                                               ; preds = %43, %28
  br label %55

55:                                               ; preds = %54
  %56 = load i32, i32* %12, align 4
  %57 = add nsw i32 %56, 1
  store i32 %57, i32* %12, align 4
  br label %28

58:                                               ; preds = %53
  %59 = load i32, i32* %11, align 4
  %60 = load i32, i32* %10, align 4
  %61 = add nsw i32 %59, %60
  %62 = load i32, i32* %7, align 4
  %63 = add nsw i32 %61, %62
  store i32 %63, i32* %5, align 4
  br label %104

64:                                               ; preds = %24
  %65 = load i32, i32* %6, align 4
  %66 = load i32, i32* %7, align 4
  %67 = load i32, i32* %8, align 4
  %68 = add nsw i32 %67, 1
  %69 = load i32, i32* %9, align 4
  %70 = call i32 @_Z7div_fooiiii(i32 %65, i32 %66, i32 %68, i32 %69)
  store i32 %70, i32* %14, align 4
  %71 = load i32, i32* %14, align 4
  %72 = load i32, i32* %6, align 4
  %73 = sub nsw i32 %72, 1
  %74 = sdiv i32 %71, %73
  store i32 %74, i32* %13, align 4
  %75 = load i32, i32* %14, align 4
  %76 = load i32, i32* %13, align 4
  %77 = add nsw i32 %75, %76
  %78 = load i32, i32* %7, align 4
  %79 = add nsw i32 %77, %78
  %80 = load i32, i32* %6, align 4
  %81 = srem i32 %79, %80
  %82 = load i32, i32* %7, align 4
  %83 = icmp ne i32 %81, %82
  br i1 %83, label %97, label %84

84:                                               ; preds = %64
  %85 = load i32, i32* %14, align 4
  %86 = icmp eq i32 %85, 0
  br i1 %86, label %97, label %87

87:                                               ; preds = %84
  %88 = load i32, i32* %14, align 4
  %89 = load i32, i32* %13, align 4
  %90 = add nsw i32 %88, %89
  %91 = load i32, i32* %7, align 4
  %92 = add nsw i32 %90, %91
  %93 = load i32, i32* %6, align 4
  %94 = sdiv i32 %92, %93
  %95 = load i32, i32* %13, align 4
  %96 = icmp ne i32 %94, %95
  br i1 %96, label %97, label %98

97:                                               ; preds = %87, %84, %64
  store i32 0, i32* %5, align 4
  br label %104

98:                                               ; preds = %87
  %99 = load i32, i32* %14, align 4
  %100 = load i32, i32* %13, align 4
  %101 = add nsw i32 %99, %100
  %102 = load i32, i32* %7, align 4
  %103 = add nsw i32 %101, %102
  store i32 %103, i32* %5, align 4
  br label %104

104:                                              ; preds = %98, %97, %58, %18
  %105 = load i32, i32* %5, align 4
  ret i32 %105
}

declare dso_local dereferenceable(272) %"class.std::basic_ostream"* @_ZNSolsEPFRSoS_E(%"class.std::basic_ostream"*, %"class.std::basic_ostream"* (%"class.std::basic_ostream"*)*) #1

declare dso_local dereferenceable(272) %"class.std::basic_ostream"* @_ZSt4endlIcSt11char_traitsIcEERSt13basic_ostreamIT_T0_ES6_(%"class.std::basic_ostream"* dereferenceable(272)) #1

; Function Attrs: noinline uwtable
define internal void @_GLOBAL__sub_I_1279.cpp() #0 section ".text.startup" {
  call void @__cxx_global_var_init()
  ret void
}


!llvm.module.flags = !{!0}
!llvm.ident = !{!1}

!0 = !{i32 1, !"wchar_size", i32 4}
!1 = !{!"clang version 10.0.0-4ubuntu1 "}
